; Function Attrs: inlinehint nofree nounwind uwtable
define internal fastcc void @XLogFromFileName(ptr noundef readonly captures(none) %0, ptr noundef nonnull %1, ptr noundef nonnull writeonly captures(none) initializes((0, 8)) %2, i32 noundef %3) unnamed_addr #12 {
  %5 = alloca i32, align 4
  %6 = alloca i32, align 4
  call void @llvm.lifetime.start.p0(i64 4, ptr nonnull %5) #16
  call void @llvm.lifetime.start.p0(i64 4, ptr nonnull %6) #16
  %7 = call i32 (ptr, ptr, ...) @__isoc99_sscanf(ptr noundef %0, ptr noundef nonnull @.str.107, ptr noundef nonnull %1, ptr noundef nonnull %5, ptr noundef nonnull %6) #16
  %8 = load i32, ptr %5, align 4
  %9 = zext i32 %8 to i64
  %10 = sext i32 %3 to i64
  %11 = udiv i64 4294967296, %10
  %12 = mul nuw i64 %11, %9
  %13 = load i32, ptr %6, align 4
  %14 = zext i32 %13 to i64
  %15 = add nuw i64 %12, %14
  store i64 %15, ptr %2, align 8
  call void @llvm.lifetime.end.p0(i64 4, ptr nonnull %6) #16
  call void @llvm.lifetime.end.p0(i64 4, ptr nonnull %5) #16
  ret void
}